target datalayout = "e-m:e-p270:32:32-p271:32:32-p272:64:64-i64:64-i128:128-f80:128-n8:16:32:64-S128"
target triple = "x86_64-pc-linux-gnu"

%"class.osgeo::proj::util::BaseObject" = type { ptr, %"class.std::unique_ptr" }
%"class.std::unique_ptr" = type { %"struct.std::__uniq_ptr_data" }
%"struct.std::__uniq_ptr_data" = type { %"class.std::__uniq_ptr_impl" }
%"class.std::__uniq_ptr_impl" = type { %"class.std::tuple" }
%"class.std::tuple" = type { %"struct.std::_Tuple_impl" }
%"struct.std::_Tuple_impl" = type { %"struct.std::_Head_base.8" }
%"struct.std::_Head_base.8" = type { ptr }
%"class.std::__cxx11::basic_string" = type { %"struct.std::__cxx11::basic_string<char>::_Alloc_hider", i64, %union.anon }
%"struct.std::__cxx11::basic_string<char>::_Alloc_hider" = type { ptr }
%union.anon = type { i64, [8 x i8] }
%"class.std::__shared_count" = type { ptr }
%struct.PJconsts = type <{ ptr, ptr, ptr, ptr, ptr, ptr, ptr, ptr, ptr, ptr, ptr, ptr, i32, [4 x i8], ptr, ptr, ptr, ptr, ptr, ptr, ptr, ptr, double, double, double, double, double, double, double, double, double, double, double, double, double, double, double, double, double, double, double, double, double, double, i32, i32, i32, i32, i32, i32, i32, i32, i32, i32, i32, [4 x i8], ptr, ptr, ptr, ptr, ptr, ptr, double, double, double, double, double, double, double, double, double, double, double, i32, [4 x i8], [7 x double], i32, [4 x i8], ptr, ptr, double, double, i32, [4 x i8], %"class.std::shared_ptr.4", i8, [7 x i8], double, i8, [7 x i8], %"class.std::__cxx11::basic_string", %"class.std::__cxx11::basic_string", %"class.std::__cxx11::basic_string", i8, [7 x i8], %"class.std::vector.42", i32, [4 x i8], %"class.std::vector.47", i32, i8, i8, i8, i8 }>
%"class.std::shared_ptr.4" = type { %"class.std::__shared_ptr.5" }
%"class.std::__shared_ptr.5" = type { ptr, %"class.std::__shared_count" }
%"class.std::vector.42" = type { %"struct.std::_Vector_base.43" }
%"struct.std::_Vector_base.43" = type { %"struct.std::_Vector_base<osgeo::proj::operation::GridDescription, std::allocator<osgeo::proj::operation::GridDescription>>::_Vector_impl" }
%"struct.std::_Vector_base<osgeo::proj::operation::GridDescription, std::allocator<osgeo::proj::operation::GridDescription>>::_Vector_impl" = type { %"struct.std::_Vector_base<osgeo::proj::operation::GridDescription, std::allocator<osgeo::proj::operation::GridDescription>>::_Vector_impl_data" }
%"struct.std::_Vector_base<osgeo::proj::operation::GridDescription, std::allocator<osgeo::proj::operation::GridDescription>>::_Vector_impl_data" = type { ptr, ptr, ptr }
%"class.std::vector.47" = type { %"struct.std::_Vector_base.48" }
%"struct.std::_Vector_base.48" = type { %"struct.std::_Vector_base<PJCoordOperation, std::allocator<PJCoordOperation>>::_Vector_impl" }
%"struct.std::_Vector_base<PJCoordOperation, std::allocator<PJCoordOperation>>::_Vector_impl" = type { %"struct.std::_Vector_base<PJCoordOperation, std::allocator<PJCoordOperation>>::_Vector_impl_data" }
%"struct.std::_Vector_base<PJCoordOperation, std::allocator<PJCoordOperation>>::_Vector_impl_data" = type { ptr, ptr, ptr }
%"class.osgeo::proj::common::Length" = type { %"class.osgeo::proj::common::Measure" }
%"class.osgeo::proj::common::Measure" = type { %"class.osgeo::proj::util::BaseObject", %"class.std::unique_ptr.60" }
%"class.std::unique_ptr.60" = type { %"struct.std::__uniq_ptr_data.61" }
%"struct.std::__uniq_ptr_data.61" = type { %"class.std::__uniq_ptr_impl.62" }
%"class.std::__uniq_ptr_impl.62" = type { %"class.std::tuple.63" }
%"class.std::tuple.63" = type { %"struct.std::_Tuple_impl.64" }
%"struct.std::_Tuple_impl.64" = type { %"struct.std::_Head_base.67" }
%"struct.std::_Head_base.67" = type { ptr }
%"class.osgeo::proj::util::optional.425" = type { i8, %"class.osgeo::proj::common::Length" }

@_ZTIN5osgeo4proj4util10BaseObjectE = external constant ptr
@.str.2 = private unnamed_addr constant [23 x i8] c"missing required input\00", align 1
@_ZTIN5osgeo4proj5datum9EllipsoidE = external constant ptr
@__FUNCTION__.proj_ellipsoid_get_parameters = private unnamed_addr constant [30 x i8] c"proj_ellipsoid_get_parameters\00", align 1
@.str.40 = private unnamed_addr constant [26 x i8] c"Object is not a Ellipsoid\00", align 1

; Function Attrs: mustprogress nounwind uwtable
define linkonce_odr hidden noundef zeroext i1 @_ZNK5osgeo4proj4util8optionalINS0_6common6LengthEE9has_valueEv(ptr noundef nonnull align 8 dereferenceable(32) %0) #0 comdat align 2 {
  %2 = alloca ptr, align 8
  store ptr %0, ptr %2, align 8
  %3 = load ptr, ptr %2, align 8
  %4 = getelementptr inbounds %"class.osgeo::proj::util::optional.425", ptr %3, i32 0, i32 0
  %5 = load i8, ptr %4, align 8
  %6 = trunc i8 %5 to i1
  ret i1 %6
}

; Function Attrs: mustprogress nounwind uwtable
define linkonce_odr noundef ptr @_ZNKSt12__shared_ptrIN5osgeo4proj4util10BaseObjectELN9__gnu_cxx12_Lock_policyE2EE3getEv(ptr noundef nonnull align 8 dereferenceable(16) %0) #0 comdat align 2 {
  %2 = alloca ptr, align 8
  store ptr %0, ptr %2, align 8
  %3 = load ptr, ptr %2, align 8
  %4 = getelementptr inbounds %"class.std::__shared_ptr.5", ptr %3, i32 0, i32 0
  %5 = load ptr, ptr %4, align 8
  ret ptr %5
}

; Function Attrs: mustprogress uwtable
define i32 @proj_ellipsoid_get_parameters(ptr noundef %0, ptr noundef %1, ptr noundef %2, ptr noundef %3, ptr noundef %4, ptr noundef %5) #2 {
  %7 = alloca i32, align 4
  %8 = alloca ptr, align 8
  %9 = alloca ptr, align 8
  %10 = alloca ptr, align 8
  %11 = alloca ptr, align 8
  %12 = alloca ptr, align 8
  %13 = alloca ptr, align 8
  %14 = alloca ptr, align 8
  %15 = alloca %"class.osgeo::proj::common::Length", align 8
  store ptr %0, ptr %8, align 8
  store ptr %1, ptr %9, align 8
  store ptr %2, ptr %10, align 8
  store ptr %3, ptr %11, align 8
  store ptr %4, ptr %12, align 8
  store ptr %5, ptr %13, align 8
  br label %16

16:                                               ; preds = %6
  %17 = load ptr, ptr %8, align 8
  %18 = icmp eq ptr %17, null
  br i1 %18, label %19, label %21

19:                                               ; preds = %16
  %20 = call noundef ptr @_Z18pj_get_default_ctxv()
  store ptr %20, ptr %8, align 8
  br label %21

21:                                               ; preds = %19, %16
  br label %22

22:                                               ; preds = %21
  %23 = load ptr, ptr %9, align 8
  %24 = icmp ne ptr %23, null
  br i1 %24, label %28, label %25

25:                                               ; preds = %22
  %26 = load ptr, ptr %8, align 8
  call void @_Z22proj_context_errno_setP6pj_ctxi(ptr noundef %26, i32 noundef 4097)
  %27 = load ptr, ptr %8, align 8
  call void @_ZL14proj_log_errorP6pj_ctxPKcS2_(ptr noundef %27, ptr noundef @__FUNCTION__.proj_ellipsoid_get_parameters, ptr noundef @.str.2)
  store i32 0, ptr %7, align 4
  br label %75

28:                                               ; preds = %22
  %29 = load ptr, ptr %9, align 8
  %30 = getelementptr inbounds %struct.PJconsts, ptr %29, i32 0, i32 84
  %31 = call noundef ptr @_ZNKSt12__shared_ptrIN5osgeo4proj4util10BaseObjectELN9__gnu_cxx12_Lock_policyE2EE3getEv(ptr noundef nonnull align 8 dereferenceable(16) %30) #19
  %32 = icmp eq ptr %31, null
  br i1 %32, label %35, label %33

33:                                               ; preds = %28
  %34 = call ptr @__dynamic_cast(ptr %31, ptr @_ZTIN5osgeo4proj4util10BaseObjectE, ptr @_ZTIN5osgeo4proj5datum9EllipsoidE, i64 0) #19
  br label %36

35:                                               ; preds = %28
  br label %36

36:                                               ; preds = %35, %33
  %37 = phi ptr [ %34, %33 ], [ null, %35 ]
  store ptr %37, ptr %14, align 8
  %38 = load ptr, ptr %14, align 8
  %39 = icmp ne ptr %38, null
  br i1 %39, label %42, label %40

40:                                               ; preds = %36
  %41 = load ptr, ptr %8, align 8
  call void @_ZL14proj_log_errorP6pj_ctxPKcS2_(ptr noundef %41, ptr noundef @__FUNCTION__.proj_ellipsoid_get_parameters, ptr noundef @.str.40)
  store i32 0, ptr %7, align 4
  br label %75

42:                                               ; preds = %36
  %43 = load ptr, ptr %10, align 8
  %44 = icmp ne ptr %43, null
  br i1 %44, label %45, label %50

45:                                               ; preds = %42
  %46 = load ptr, ptr %14, align 8
  %47 = call noundef nonnull align 8 dereferenceable(24) ptr @_ZNK5osgeo4proj5datum9Ellipsoid13semiMajorAxisEv(ptr noundef nonnull align 8 dereferenceable(64) %46) #6
  %48 = call noundef double @_ZNK5osgeo4proj6common7Measure10getSIValueEv(ptr noundef nonnull align 8 dereferenceable(24) %47) #6
  %49 = load ptr, ptr %10, align 8
  store double %48, ptr %49, align 8
  br label %50

50:                                               ; preds = %45, %42
  %51 = load ptr, ptr %11, align 8
  %52 = icmp ne ptr %51, null
  br i1 %52, label %53, label %57

53:                                               ; preds = %50
  %54 = load ptr, ptr %14, align 8
  call void @_ZNK5osgeo4proj5datum9Ellipsoid20computeSemiMinorAxisEv(ptr dead_on_unwind writable sret(%"class.osgeo::proj::common::Length") align 8 %15, ptr noundef nonnull align 8 dereferenceable(64) %54)
  %55 = call noundef double @_ZNK5osgeo4proj6common7Measure10getSIValueEv(ptr noundef nonnull align 8 dereferenceable(24) %15) #6
  %56 = load ptr, ptr %11, align 8
  store double %55, ptr %56, align 8
  call void @_ZN5osgeo4proj6common6LengthD1Ev(ptr noundef nonnull align 8 dereferenceable(24) %15) #19
  br label %57

57:                                               ; preds = %53, %50
  %58 = load ptr, ptr %12, align 8
  %59 = icmp ne ptr %58, null
  br i1 %59, label %60, label %67

60:                                               ; preds = %57
  %61 = load ptr, ptr %14, align 8
  %62 = call noundef nonnull align 8 dereferenceable(32) ptr @_ZNK5osgeo4proj5datum9Ellipsoid13semiMinorAxisEv(ptr noundef nonnull align 8 dereferenceable(64) %61) #6
  %63 = call noundef zeroext i1 @_ZNK5osgeo4proj4util8optionalINS0_6common6LengthEE9has_valueEv(ptr noundef nonnull align 8 dereferenceable(32) %62) #19
  %64 = xor i1 %63, true
  %65 = zext i1 %64 to i32
  %66 = load ptr, ptr %12, align 8
  store i32 %65, ptr %66, align 4
  br label %67

67:                                               ; preds = %60, %57
  %68 = load ptr, ptr %13, align 8
  %69 = icmp ne ptr %68, null
  br i1 %69, label %70, label %74

70:                                               ; preds = %67
  %71 = load ptr, ptr %14, align 8
  %72 = call noundef double @_ZNK5osgeo4proj5datum9Ellipsoid25computedInverseFlatteningEv(ptr noundef nonnull align 8 dereferenceable(64) %71) #6
  %73 = load ptr, ptr %13, align 8
  store double %72, ptr %73, align 8
  br label %74

74:                                               ; preds = %70, %67
  store i32 1, ptr %7, align 4
  br label %75

75:                                               ; preds = %74, %40, %25
  %76 = load i32, ptr %7, align 4
  ret i32 %76
}