; Function Attrs: mustprogress uwtable
define noundef i32 @proj_ellipsoid_get_parameters(ptr noundef %0, ptr noundef readonly %1, ptr noundef writeonly %2, ptr noundef writeonly %3, ptr noundef writeonly %4, ptr noundef writeonly %5) local_unnamed_addr #2 {
  %7 = alloca %"class.osgeo::proj::common::Length", align 8
  %8 = icmp eq ptr %0, null
  br i1 %8, label %9, label %11

9:                                                ; preds = %6
  %10 = tail call noundef ptr @_Z18pj_get_default_ctxv()
  br label %11

11:                                               ; preds = %6, %9
  %.019 = phi ptr [ %10, %9 ], [ %0, %6 ]
  %.not = icmp eq ptr %1, null
  br i1 %.not, label %12, label %13

12:                                               ; preds = %11
  tail call void @_Z22proj_context_errno_setP6pj_ctxi(ptr noundef %.019, i32 noundef 4097)
  tail call fastcc void @_ZL14proj_log_errorP6pj_ctxPKcS2_(ptr noundef %.019, ptr noundef nonnull @__FUNCTION__.proj_ellipsoid_get_parameters, ptr noundef nonnull @.str.2)
  br label %36

13:                                               ; preds = %11
  %14 = getelementptr inbounds i8, ptr %1, i64 640
  %15 = load ptr, ptr %14, align 8
  %16 = icmp eq ptr %15, null
  br i1 %16, label %.thread, label %17

17:                                               ; preds = %13
  %18 = tail call ptr @__dynamic_cast(ptr nonnull %15, ptr nonnull @_ZTIN5osgeo4proj4util10BaseObjectE, ptr nonnull @_ZTIN5osgeo4proj5datum9EllipsoidE, i64 0) #27
  %.not28 = icmp eq ptr %18, null
  br i1 %.not28, label %.thread, label %19

.thread:                                          ; preds = %13, %17
  tail call fastcc void @_ZL14proj_log_errorP6pj_ctxPKcS2_(ptr noundef %.019, ptr noundef nonnull @__FUNCTION__.proj_ellipsoid_get_parameters, ptr noundef nonnull @.str.40)
  br label %36

19:                                               ; preds = %17
  %.not29 = icmp eq ptr %2, null
  br i1 %.not29, label %23, label %20

20:                                               ; preds = %19
  %21 = tail call noundef nonnull align 8 dereferenceable(24) ptr @_ZNK5osgeo4proj5datum9Ellipsoid13semiMajorAxisEv(ptr noundef nonnull align 8 dereferenceable(64) %18) #32
  %22 = tail call noundef double @_ZNK5osgeo4proj6common7Measure10getSIValueEv(ptr noundef nonnull align 8 dereferenceable(24) %21) #32
  store double %22, ptr %2, align 8
  br label %23

23:                                               ; preds = %20, %19
  %.not30 = icmp eq ptr %3, null
  br i1 %.not30, label %26, label %24

24:                                               ; preds = %23
  call void @_ZNK5osgeo4proj5datum9Ellipsoid20computeSemiMinorAxisEv(ptr dead_on_unwind nonnull writable sret(%"class.osgeo::proj::common::Length") align 8 %7, ptr noundef nonnull align 8 dereferenceable(64) %18)
  %25 = call noundef double @_ZNK5osgeo4proj6common7Measure10getSIValueEv(ptr noundef nonnull align 8 dereferenceable(24) %7) #32
  store double %25, ptr %3, align 8
  call void @_ZN5osgeo4proj6common6LengthD1Ev(ptr noundef nonnull align 8 dereferenceable(24) %7) #27
  br label %26

26:                                               ; preds = %24, %23
  %.not31 = icmp eq ptr %4, null
  br i1 %.not31, label %33, label %27

27:                                               ; preds = %26
  %28 = call noundef nonnull align 8 dereferenceable(32) ptr @_ZNK5osgeo4proj5datum9Ellipsoid13semiMinorAxisEv(ptr noundef nonnull align 8 dereferenceable(64) %18) #32
  %29 = load i8, ptr %28, align 8
  %30 = and i8 %29, 1
  %31 = xor i8 %30, 1
  %32 = zext nneg i8 %31 to i32
  store i32 %32, ptr %4, align 4
  br label %33

33:                                               ; preds = %27, %26
  %.not32 = icmp eq ptr %5, null
  br i1 %.not32, label %36, label %34

34:                                               ; preds = %33
  %35 = call noundef double @_ZNK5osgeo4proj5datum9Ellipsoid25computedInverseFlatteningEv(ptr noundef nonnull align 8 dereferenceable(64) %18) #32
  store double %35, ptr %5, align 8
  br label %36

36:                                               ; preds = %33, %34, %.thread, %12
  %.0 = phi i32 [ 0, %.thread ], [ 0, %12 ], [ 1, %34 ], [ 1, %33 ]
  ret i32 %.0
}